; Function Attrs: mustprogress uwtable
define hidden noundef ptr @_Z11luaH_newkeyP9lua_StateP8LuaTablePK10lua_TValue(ptr noundef %0, ptr noundef %1, ptr noundef %2) local_unnamed_addr #0 {
  %4 = getelementptr inbounds nuw i8, ptr %2, i64 12
  %5 = load i32, ptr %4, align 4, !tbaa !4
  switch i32 %5, label %.thread [
    i32 0, label %6
    i32 3, label %7
    i32 4, label %11
  ]

6:                                                ; preds = %3
  tail call void (ptr, ptr, ...) @_Z14luaG_runerrorLP9lua_StatePKcz(ptr noundef %0, ptr noundef nonnull @.str) #10
  unreachable

7:                                                ; preds = %3
  %8 = load double, ptr %2, align 8, !tbaa !16
  %9 = fcmp uno double %8, 0.000000e+00
  br i1 %9, label %10, label %.thread

10:                                               ; preds = %7
  tail call void (ptr, ptr, ...) @_Z14luaG_runerrorLP9lua_StatePKcz(ptr noundef %0, ptr noundef nonnull @.str.1) #10
  unreachable

11:                                               ; preds = %3
  %12 = load float, ptr %2, align 4, !tbaa !68
  %13 = fcmp uno float %12, 0.000000e+00
  br i1 %13, label %_Z13luai_vecisnanPKf.exit.thread, label %14

14:                                               ; preds = %11
  %15 = getelementptr inbounds nuw i8, ptr %2, i64 4
  %16 = load float, ptr %15, align 4, !tbaa !68
  %17 = fcmp uno float %16, 0.000000e+00
  br i1 %17, label %_Z13luai_vecisnanPKf.exit.thread, label %_Z13luai_vecisnanPKf.exit

_Z13luai_vecisnanPKf.exit:                        ; preds = %14
  %18 = getelementptr inbounds nuw i8, ptr %2, i64 8
  %19 = load float, ptr %18, align 4, !tbaa !68
  %20 = fcmp uno float %19, 0.000000e+00
  br i1 %20, label %_Z13luai_vecisnanPKf.exit.thread, label %.thread

_Z13luai_vecisnanPKf.exit.thread:                 ; preds = %11, %14, %_Z13luai_vecisnanPKf.exit
  tail call void (ptr, ptr, ...) @_Z14luaG_runerrorLP9lua_StatePKcz(ptr noundef %0, ptr noundef nonnull @.str.2) #10
  unreachable

.thread:                                          ; preds = %3, %7, %_Z13luai_vecisnanPKf.exit
  %21 = tail call fastcc noundef ptr @_ZL6newkeyP9lua_StateP8LuaTablePK10lua_TValue(ptr noundef %0, ptr noundef %1, ptr noundef nonnull %2)
  ret ptr %21
}